target datalayout = "e-m:e-p270:32:32-p271:32:32-p272:64:64-i64:64-i128:128-f80:128-n8:16:32:64-S128"
target triple = "x86_64-pc-linux-gnu"

@.str.18 = private unnamed_addr constant [30 x i8] c"../openssl/test/threadstest.c\00", align 1
@thread_local_key = internal global i32 0, align 4
@.str.100 = private unnamed_addr constant [4 x i8] c"ptr\00", align 1
@thread_local_thread_cb_ok = internal global i32 0, align 4
@destructor_run_count = internal global i32 0, align 4
@.str.105 = private unnamed_addr constant [66 x i8] c"CRYPTO_THREAD_set_local(&thread_local_key, &destructor_run_count)\00", align 1
@.str.106 = private unnamed_addr constant [22 x i8] c"&destructor_run_count\00", align 1

; Function Attrs: nounwind uwtable
define internal void @thread_local_thread_cb() #0 {
  %1 = alloca ptr, align 8
  %2 = alloca i32, align 4
  call void @llvm.lifetime.start.p0(i64 8, ptr %1) #10
  %3 = call ptr @CRYPTO_THREAD_get_local(ptr noundef @thread_local_key)
  store ptr %3, ptr %1, align 8, !tbaa !13
  %4 = load ptr, ptr %1, align 8, !tbaa !13
  %5 = call i32 @test_ptr_null(ptr noundef @.str.18, i32 noundef 544, ptr noundef @.str.100, ptr noundef %4)
  %6 = icmp ne i32 %5, 0
  br i1 %6, label %7, label %13

7:                                                ; preds = %0
  %8 = call i32 @CRYPTO_THREAD_set_local(ptr noundef @thread_local_key, ptr noundef @destructor_run_count)
  %9 = icmp ne i32 %8, 0
  %10 = zext i1 %9 to i32
  %11 = call i32 @test_true(ptr noundef @.str.18, i32 noundef 546, ptr noundef @.str.105, i32 noundef %10)
  %12 = icmp ne i32 %11, 0
  br i1 %12, label %14, label %13

13:                                               ; preds = %7, %0
  store i32 1, ptr %2, align 4
  br label %21

14:                                               ; preds = %7
  %15 = call ptr @CRYPTO_THREAD_get_local(ptr noundef @thread_local_key)
  store ptr %15, ptr %1, align 8, !tbaa !13
  %16 = load ptr, ptr %1, align 8, !tbaa !13
  %17 = call i32 @test_ptr_eq(ptr noundef @.str.18, i32 noundef 550, ptr noundef @.str.100, ptr noundef @.str.106, ptr noundef %16, ptr noundef @destructor_run_count)
  %18 = icmp ne i32 %17, 0
  br i1 %18, label %20, label %19

19:                                               ; preds = %14
  store i32 1, ptr %2, align 4
  br label %21

20:                                               ; preds = %14
  store i32 1, ptr @thread_local_thread_cb_ok, align 4, !tbaa !4
  store i32 0, ptr %2, align 4
  br label %21

21:                                               ; preds = %20, %19, %13
  call void @llvm.lifetime.end.p0(i64 8, ptr %1) #10
  %22 = load i32, ptr %2, align 4
  switch i32 %22, label %24 [
    i32 0, label %23
    i32 1, label %23
  ]

23:                                               ; preds = %21, %21
  ret void

24:                                               ; preds = %21
  unreachable
}