; Function Attrs: nounwind uwtable
define internal void @thread_local_thread_cb() #1 {
  %1 = tail call ptr @CRYPTO_THREAD_get_local(ptr noundef nonnull @thread_local_key) #11
  %2 = tail call i32 @test_ptr_null(ptr noundef nonnull @.str.18, i32 noundef 544, ptr noundef nonnull @.str.100, ptr noundef %1) #11
  %.not = icmp eq i32 %2, 0
  br i1 %.not, label %12, label %3

3:                                                ; preds = %0
  %4 = tail call i32 @CRYPTO_THREAD_set_local(ptr noundef nonnull @thread_local_key, ptr noundef nonnull @destructor_run_count) #11
  %5 = icmp ne i32 %4, 0
  %6 = zext i1 %5 to i32
  %7 = tail call i32 @test_true(ptr noundef nonnull @.str.18, i32 noundef 546, ptr noundef nonnull @.str.105, i32 noundef %6) #11
  %.not2 = icmp eq i32 %7, 0
  br i1 %.not2, label %12, label %8

8:                                                ; preds = %3
  %9 = tail call ptr @CRYPTO_THREAD_get_local(ptr noundef nonnull @thread_local_key) #11
  %10 = tail call i32 @test_ptr_eq(ptr noundef nonnull @.str.18, i32 noundef 550, ptr noundef nonnull @.str.100, ptr noundef nonnull @.str.106, ptr noundef %9, ptr noundef nonnull @destructor_run_count) #11
  %.not3 = icmp eq i32 %10, 0
  br i1 %.not3, label %12, label %11

11:                                               ; preds = %8
  store i1 true, ptr @thread_local_thread_cb_ok, align 4
  br label %12

12:                                               ; preds = %8, %0, %3, %11
  ret void
}